target datalayout = "e-m:e-p270:32:32-p271:32:32-p272:64:64-i64:64-i128:128-f80:128-n8:16:32:64-S128"
target triple = "x86_64-pc-linux-gnu"

%struct.cinfo_tag = type { i32, i32, i32, i32, i32, i32, i32, i32, i32, i32, i32, i32, i32, i32, i32, i32, i32, i64, i64, i64 }
%struct.cube = type { i8, i8, i16, i16, i16, ptr, ptr, ptr, ptr }

@g_CoverInfo = external global %struct.cinfo_tag, align 8
@.str.1 = private unnamed_addr constant [2 x i8] c"0\00", align 1
@.str.2 = private unnamed_addr constant [2 x i8] c"1\00", align 1
@.str.3 = private unnamed_addr constant [2 x i8] c"-\00", align 1
@.str.4 = private unnamed_addr constant [2 x i8] c" \00", align 1
@.str.5 = private unnamed_addr constant [2 x i8] c"\0A\00", align 1

; Function Attrs: nounwind uwtable
define void @WriteTableIntoFile(ptr noundef %0) #0 {
  %2 = alloca ptr, align 8
  %3 = alloca i32, align 4
  %4 = alloca i32, align 4
  %5 = alloca ptr, align 8
  %6 = alloca i32, align 4
  %7 = alloca i32, align 4
  %8 = alloca i32, align 4
  %9 = alloca i32, align 4
  store ptr %0, ptr %2, align 8, !tbaa !23
  call void @llvm.lifetime.start.p0(i64 4, ptr %3) #5
  call void @llvm.lifetime.start.p0(i64 4, ptr %4) #5
  call void @llvm.lifetime.start.p0(i64 8, ptr %5) #5
  call void @llvm.lifetime.start.p0(i64 4, ptr %6) #5
  call void @llvm.lifetime.start.p0(i64 4, ptr %7) #5
  call void @llvm.lifetime.start.p0(i64 4, ptr %8) #5
  %10 = call ptr (...) @IterCubeSetStart()
  store ptr %10, ptr %5, align 8, !tbaa !7
  br label %11

11:                                               ; preds = %95, %1
  %12 = load ptr, ptr %5, align 8, !tbaa !7
  %13 = icmp ne ptr %12, null
  br i1 %13, label %14, label %97

14:                                               ; preds = %11
  store i32 0, ptr %3, align 4, !tbaa !3
  br label %15

15:                                               ; preds = %44, %14
  %16 = load i32, ptr %3, align 4, !tbaa !3
  %17 = load i32, ptr @g_CoverInfo, align 8, !tbaa !16
  %18 = icmp slt i32 %16, %17
  br i1 %18, label %19, label %47

19:                                               ; preds = %15
  call void @llvm.lifetime.start.p0(i64 4, ptr %9) #5
  %20 = load ptr, ptr %5, align 8, !tbaa !7
  %21 = load i32, ptr %3, align 4, !tbaa !3
  %22 = call i32 @GetVar(ptr noundef %20, i32 noundef %21)
  store i32 %22, ptr %9, align 4, !tbaa !3
  %23 = load i32, ptr %9, align 4, !tbaa !3
  %24 = icmp eq i32 %23, 1
  br i1 %24, label %25, label %28

25:                                               ; preds = %19
  %26 = load ptr, ptr %2, align 8, !tbaa !23
  %27 = call i32 (ptr, ptr, ...) @fprintf(ptr noundef %26, ptr noundef @.str.1) #5
  br label %43

28:                                               ; preds = %19
  %29 = load i32, ptr %9, align 4, !tbaa !3
  %30 = icmp eq i32 %29, 2
  br i1 %30, label %31, label %34

31:                                               ; preds = %28
  %32 = load ptr, ptr %2, align 8, !tbaa !23
  %33 = call i32 (ptr, ptr, ...) @fprintf(ptr noundef %32, ptr noundef @.str.2) #5
  br label %42

34:                                               ; preds = %28
  %35 = load i32, ptr %9, align 4, !tbaa !3
  %36 = icmp eq i32 %35, 3
  br i1 %36, label %37, label %40

37:                                               ; preds = %34
  %38 = load ptr, ptr %2, align 8, !tbaa !23
  %39 = call i32 (ptr, ptr, ...) @fprintf(ptr noundef %38, ptr noundef @.str.3) #5
  br label %41

40:                                               ; preds = %34
  br label %41

41:                                               ; preds = %40, %37
  br label %42

42:                                               ; preds = %41, %31
  br label %43

43:                                               ; preds = %42, %25
  call void @llvm.lifetime.end.p0(i64 4, ptr %9) #5
  br label %44

44:                                               ; preds = %43
  %45 = load i32, ptr %3, align 4, !tbaa !3
  %46 = add nsw i32 %45, 1
  store i32 %46, ptr %3, align 4, !tbaa !3
  br label %15, !llvm.loop !25

47:                                               ; preds = %15
  %48 = load ptr, ptr %2, align 8, !tbaa !23
  %49 = call i32 (ptr, ptr, ...) @fprintf(ptr noundef %48, ptr noundef @.str.4) #5
  store i32 0, ptr %6, align 4, !tbaa !3
  %50 = load i32, ptr getelementptr inbounds nuw (%struct.cinfo_tag, ptr @g_CoverInfo, i32 0, i32 1), align 4, !tbaa !26
  store i32 %50, ptr %7, align 4, !tbaa !3
  store i32 32, ptr %8, align 4, !tbaa !3
  store i32 0, ptr %4, align 4, !tbaa !3
  br label %51

51:                                               ; preds = %89, %47
  %52 = load i32, ptr %4, align 4, !tbaa !3
  %53 = load i32, ptr getelementptr inbounds nuw (%struct.cinfo_tag, ptr @g_CoverInfo, i32 0, i32 3), align 4, !tbaa !27
  %54 = icmp slt i32 %52, %53
  br i1 %54, label %55, label %92

55:                                               ; preds = %51
  store i32 0, ptr %3, align 4, !tbaa !3
  br label %56

56:                                               ; preds = %85, %55
  %57 = load i32, ptr %3, align 4, !tbaa !3
  %58 = load i32, ptr %8, align 4, !tbaa !3
  %59 = icmp slt i32 %57, %58
  br i1 %59, label %60, label %88

60:                                               ; preds = %56
  %61 = load ptr, ptr %5, align 8, !tbaa !7
  %62 = getelementptr inbounds nuw %struct.cube, ptr %61, i32 0, i32 6
  %63 = load ptr, ptr %62, align 8, !tbaa !28
  %64 = load i32, ptr %4, align 4, !tbaa !3
  %65 = sext i32 %64 to i64
  %66 = getelementptr inbounds i32, ptr %63, i64 %65
  %67 = load i32, ptr %66, align 4, !tbaa !3
  %68 = load i32, ptr %3, align 4, !tbaa !3
  %69 = shl i32 1, %68
  %70 = and i32 %67, %69
  %71 = icmp ne i32 %70, 0
  br i1 %71, label %72, label %75

72:                                               ; preds = %60
  %73 = load ptr, ptr %2, align 8, !tbaa !23
  %74 = call i32 (ptr, ptr, ...) @fprintf(ptr noundef %73, ptr noundef @.str.2) #5
  br label %78

75:                                               ; preds = %60
  %76 = load ptr, ptr %2, align 8, !tbaa !23
  %77 = call i32 (ptr, ptr, ...) @fprintf(ptr noundef %76, ptr noundef @.str.1) #5
  br label %78

78:                                               ; preds = %75, %72
  %79 = load i32, ptr %6, align 4, !tbaa !3
  %80 = add nsw i32 %79, 1
  store i32 %80, ptr %6, align 4, !tbaa !3
  %81 = load i32, ptr %7, align 4, !tbaa !3
  %82 = icmp eq i32 %80, %81
  br i1 %82, label %83, label %84

83:                                               ; preds = %78
  br label %88

84:                                               ; preds = %78
  br label %85

85:                                               ; preds = %84
  %86 = load i32, ptr %3, align 4, !tbaa !3
  %87 = add nsw i32 %86, 1
  store i32 %87, ptr %3, align 4, !tbaa !3
  br label %56, !llvm.loop !29

88:                                               ; preds = %83, %56
  br label %89

89:                                               ; preds = %88
  %90 = load i32, ptr %4, align 4, !tbaa !3
  %91 = add nsw i32 %90, 1
  store i32 %91, ptr %4, align 4, !tbaa !3
  br label %51, !llvm.loop !30

92:                                               ; preds = %51
  %93 = load ptr, ptr %2, align 8, !tbaa !23
  %94 = call i32 (ptr, ptr, ...) @fprintf(ptr noundef %93, ptr noundef @.str.5) #5
  br label %95

95:                                               ; preds = %92
  %96 = call ptr (...) @IterCubeSetNext()
  store ptr %96, ptr %5, align 8, !tbaa !7
  br label %11, !llvm.loop !31

97:                                               ; preds = %11
  call void @llvm.lifetime.end.p0(i64 4, ptr %8) #5
  call void @llvm.lifetime.end.p0(i64 4, ptr %7) #5
  call void @llvm.lifetime.end.p0(i64 4, ptr %6) #5
  call void @llvm.lifetime.end.p0(i64 8, ptr %5) #5
  call void @llvm.lifetime.end.p0(i64 4, ptr %4) #5
  call void @llvm.lifetime.end.p0(i64 4, ptr %3) #5
  ret void
}