; Function Attrs: nounwind uwtable
define void @WriteTableIntoFile(ptr noundef captures(none) %0) local_unnamed_addr #0 {
  %2 = tail call ptr (...) @IterCubeSetStart() #6
  %.not45 = icmp eq ptr %2, null
  br i1 %.not45, label %._crit_edge47, label %.preheader38

.preheader38:                                     ; preds = %1, %._crit_edge44
  %.02546 = phi ptr [ %30, %._crit_edge44 ], [ %2, %1 ]
  %3 = load i32, ptr @g_CoverInfo, align 8, !tbaa !13
  %4 = icmp sgt i32 %3, 0
  br i1 %4, label %.lr.ph, label %._crit_edge

.lr.ph:                                           ; preds = %.preheader38, %8
  %.039 = phi i32 [ %9, %8 ], [ 0, %.preheader38 ]
  %5 = tail call i32 @GetVar(ptr noundef nonnull %.02546, i32 noundef %.039) #6
  %switch.tableidx = add i32 %5, -1
  %6 = icmp ult i32 %switch.tableidx, 3
  br i1 %6, label %switch.lookup, label %8

switch.lookup:                                    ; preds = %.lr.ph
  %7 = zext nneg i32 %switch.tableidx to i64
  %switch.gep = getelementptr inbounds nuw [3 x i32], ptr @switch.table.WriteTableIntoFile, i64 0, i64 %7
  %switch.load = load i32, ptr %switch.gep, align 4
  %fputc36 = tail call i32 @fputc(i32 %switch.load, ptr %0)
  br label %8

8:                                                ; preds = %.lr.ph, %switch.lookup
  %9 = add nuw nsw i32 %.039, 1
  %10 = load i32, ptr @g_CoverInfo, align 8, !tbaa !13
  %11 = icmp slt i32 %9, %10
  br i1 %11, label %.lr.ph, label %._crit_edge, !llvm.loop !20

._crit_edge:                                      ; preds = %8, %.preheader38
  %fputc = tail call i32 @fputc(i32 32, ptr %0)
  %12 = load i32, ptr getelementptr inbounds nuw (i8, ptr @g_CoverInfo, i64 4), align 4, !tbaa !21
  %13 = load i32, ptr getelementptr inbounds nuw (i8, ptr @g_CoverInfo, i64 12), align 4, !tbaa !22
  %14 = icmp sgt i32 %13, 0
  br i1 %14, label %.preheader.lr.ph, label %._crit_edge44

.preheader.lr.ph:                                 ; preds = %._crit_edge
  %15 = getelementptr inbounds nuw i8, ptr %.02546, i64 16
  br label %.preheader

.preheader:                                       ; preds = %.preheader.lr.ph, %26
  %indvars.iv = phi i64 [ 0, %.preheader.lr.ph ], [ %indvars.iv.next, %26 ]
  %.02642 = phi i32 [ 0, %.preheader.lr.ph ], [ %22, %26 ]
  br label %16

16:                                               ; preds = %16, %.preheader
  %.141 = phi i32 [ 0, %.preheader ], [ %24, %16 ]
  %.12740 = phi i32 [ %.02642, %.preheader ], [ %22, %16 ]
  %17 = load ptr, ptr %15, align 8, !tbaa !23
  %18 = getelementptr inbounds nuw i32, ptr %17, i64 %indvars.iv
  %19 = load i32, ptr %18, align 4, !tbaa !24
  %20 = shl nuw i32 1, %.141
  %21 = and i32 %19, %20
  %.not32 = icmp eq i32 %21, 0
  %. = select i1 %.not32, i32 48, i32 49
  %fputc33 = tail call i32 @fputc(i32 %., ptr %0)
  %22 = add nsw i32 %.12740, 1
  %23 = icmp ne i32 %22, %12
  %24 = add nuw nsw i32 %.141, 1
  %25 = icmp samesign ult i32 %.141, 31
  %or.cond = select i1 %23, i1 %25, i1 false
  br i1 %or.cond, label %16, label %26, !llvm.loop !25

26:                                               ; preds = %16
  %indvars.iv.next = add nuw nsw i64 %indvars.iv, 1
  %27 = load i32, ptr getelementptr inbounds nuw (i8, ptr @g_CoverInfo, i64 12), align 4, !tbaa !22
  %28 = sext i32 %27 to i64
  %29 = icmp slt i64 %indvars.iv.next, %28
  br i1 %29, label %.preheader, label %._crit_edge44, !llvm.loop !26

._crit_edge44:                                    ; preds = %26, %._crit_edge
  %fputc31 = tail call i32 @fputc(i32 10, ptr %0)
  %30 = tail call ptr (...) @IterCubeSetNext() #6
  %.not = icmp eq ptr %30, null
  br i1 %.not, label %._crit_edge47, label %.preheader38, !llvm.loop !27

._crit_edge47:                                    ; preds = %._crit_edge44, %1
  ret void
}